; Function Attrs: null_pointer_is_valid sspstrong uwtable
define internal range(i32 -268435456, 268435456) i32 @dissect_RAB_RelocationReleaseList_PDU(ptr noundef %0, ptr noundef %1, ptr noundef %2, ptr readnone captures(none) %3) #0 {
  %5 = alloca %struct._asn1_ctx_t, align 8
  call void @llvm.lifetime.start.p0(i64 208, ptr nonnull %5) #4
  call void @asn1_ctx_init(ptr noundef nonnull %5, i32 noundef 1, i1 noundef zeroext true, ptr noundef %1)
  %6 = load i32, ptr @hf_ranap_RAB_RelocationReleaseList_PDU, align 4
  call void @asn1_stack_frame_push(ptr noundef nonnull %5, ptr noundef nonnull @.str.2473)
  call void @asn1_param_push_integer(ptr noundef nonnull %5, i32 noundef 1)
  call void @asn1_param_push_integer(ptr noundef nonnull %5, i32 noundef 256)
  call void @asn1_stack_frame_check(ptr noundef nonnull %5, ptr noundef nonnull @.str.2473, ptr noundef nonnull @dissect_ranap_ProtocolIE_ContainerList.ProtocolIE_ContainerList_pars)
  %7 = load i32, ptr @ett_ranap_ProtocolIE_ContainerList, align 4
  %8 = call i32 @asn1_param_get_integer(ptr noundef nonnull %5, ptr noundef nonnull @.str.2474)
  %9 = call i32 @asn1_param_get_integer(ptr noundef nonnull %5, ptr noundef nonnull @.str.2475)
  %10 = call i32 @dissect_per_constrained_sequence_of(ptr noundef %0, i32 noundef 0, ptr noundef nonnull %5, ptr noundef %2, i32 noundef %6, i32 noundef %7, ptr noundef nonnull @ProtocolIE_ContainerList_sequence_of, i32 noundef %8, i32 noundef %9, i1 noundef zeroext false)
  call void @asn1_stack_frame_pop(ptr noundef nonnull %5, ptr noundef nonnull @.str.2473)
  %11 = add i32 %10, 7
  %12 = ashr i32 %11, 3
  call void @llvm.lifetime.end.p0(i64 208, ptr nonnull %5) #4
  ret i32 %12
}